; Function Attrs: mustprogress uwtable
define hidden void @_ZN16bound_simplifier12assert_lowerEP4exprRK8rationalb(ptr noundef nonnull align 8 dereferenceable(3156) %0, ptr noundef %1, ptr noundef nonnull align 8 dereferenceable(32) %2, i1 noundef zeroext %3) local_unnamed_addr #3 align 2 personality ptr @__gxx_personality_v0 {
  %5 = alloca %class._scoped_numeral, align 8
  call void @llvm.lifetime.start.p0(i64 40, ptr nonnull %5) #19
  %6 = getelementptr inbounds nuw i8, ptr %0, i64 72
  store ptr %6, ptr %5, align 8, !tbaa !277
  %7 = getelementptr inbounds nuw i8, ptr %5, i64 8
  store i32 0, ptr %7, align 8, !tbaa !3
  %8 = getelementptr inbounds nuw i8, ptr %5, i64 12
  store i8 0, ptr %8, align 4
  %9 = getelementptr inbounds nuw i8, ptr %5, i64 16
  store ptr null, ptr %9, align 8, !tbaa !10
  %10 = getelementptr inbounds nuw i8, ptr %5, i64 24
  store i32 1, ptr %10, align 8, !tbaa !3
  %11 = getelementptr inbounds nuw i8, ptr %5, i64 28
  store i8 0, ptr %11, align 4
  %12 = getelementptr inbounds nuw i8, ptr %5, i64 32
  store ptr null, ptr %12, align 8, !tbaa !10
  %13 = getelementptr inbounds nuw i8, ptr %2, i64 4
  %14 = load i8, ptr %13, align 4
  %15 = and i8 %14, 1
  %16 = icmp eq i8 %15, 0
  br i1 %16, label %17, label %19

17:                                               ; preds = %4
  %18 = load i32, ptr %2, align 8, !tbaa !3
  store i32 %18, ptr %7, align 8, !tbaa !3
  store i8 0, ptr %8, align 4
  br label %_ZN11mpq_managerILb0EE3setER3mpzRKS1_.exit.i

19:                                               ; preds = %4
  invoke void @_ZN11mpz_managerILb0EE7big_setER3mpzRKS1_(ptr noundef nonnull align 8 dereferenceable(728) %6, ptr noundef nonnull align 8 dereferenceable(32) %7, ptr noundef nonnull align 8 dereferenceable(32) %2)
          to label %_ZN11mpq_managerILb0EE3setER3mpzRKS1_.exit.i unwind label %59

_ZN11mpq_managerILb0EE3setER3mpzRKS1_.exit.i:     ; preds = %19, %17
  %20 = getelementptr inbounds nuw i8, ptr %2, i64 16
  %21 = getelementptr inbounds nuw i8, ptr %2, i64 20
  %22 = load i8, ptr %21, align 4
  %23 = and i8 %22, 1
  %24 = icmp eq i8 %23, 0
  br i1 %24, label %25, label %29

25:                                               ; preds = %_ZN11mpq_managerILb0EE3setER3mpzRKS1_.exit.i
  %26 = load i32, ptr %20, align 8, !tbaa !3
  store i32 %26, ptr %10, align 8, !tbaa !3
  %27 = load i8, ptr %11, align 4
  %28 = and i8 %27, -2
  store i8 %28, ptr %11, align 4
  br label %_ZN11mpq_managerILb0EE3setER3mpqRKS1_.exit

29:                                               ; preds = %_ZN11mpq_managerILb0EE3setER3mpzRKS1_.exit.i
  invoke void @_ZN11mpz_managerILb0EE7big_setER3mpzRKS1_(ptr noundef nonnull align 8 dereferenceable(728) %6, ptr noundef nonnull align 8 dereferenceable(16) %10, ptr noundef nonnull align 8 dereferenceable(16) %20)
          to label %_ZN11mpq_managerILb0EE3setER3mpqRKS1_.exit unwind label %59

_ZN11mpq_managerILb0EE3setER3mpqRKS1_.exit:       ; preds = %25, %29
  %30 = invoke noundef i32 @_ZN16bound_simplifier6to_varEP4expr(ptr noundef nonnull align 8 dereferenceable(3156) %0, ptr noundef %1)
          to label %31 unwind label %59

31:                                               ; preds = %_ZN11mpq_managerILb0EE3setER3mpqRKS1_.exit
  %32 = getelementptr inbounds nuw i8, ptr %0, i64 1320
  %33 = load ptr, ptr %32, align 8, !tbaa !281
  %34 = getelementptr inbounds nuw i8, ptr %0, i64 1496
  %35 = load i8, ptr %8, align 4
  %36 = and i8 %35, 1
  %37 = icmp eq i8 %36, 0
  br i1 %37, label %38, label %43

38:                                               ; preds = %31
  %39 = load i32, ptr %7, align 8, !tbaa !3
  store i32 %39, ptr %34, align 8, !tbaa !3
  %40 = getelementptr inbounds nuw i8, ptr %0, i64 1500
  %41 = load i8, ptr %40, align 4
  %42 = and i8 %41, -2
  store i8 %42, ptr %40, align 4
  br label %_ZN11mpq_managerILb0EE3setER3mpzRKS1_.exit.i.i

43:                                               ; preds = %31
  invoke void @_ZN11mpz_managerILb0EE7big_setER3mpzRKS1_(ptr noundef nonnull align 8 dereferenceable(728) %33, ptr noundef nonnull align 8 dereferenceable(32) %34, ptr noundef nonnull align 8 dereferenceable(32) %7)
          to label %_ZN11mpq_managerILb0EE3setER3mpzRKS1_.exit.i.i unwind label %59

_ZN11mpq_managerILb0EE3setER3mpzRKS1_.exit.i.i:   ; preds = %43, %38
  %44 = getelementptr inbounds nuw i8, ptr %0, i64 1512
  %45 = load i8, ptr %11, align 4
  %46 = and i8 %45, 1
  %47 = icmp eq i8 %46, 0
  br i1 %47, label %48, label %53

48:                                               ; preds = %_ZN11mpq_managerILb0EE3setER3mpzRKS1_.exit.i.i
  %49 = load i32, ptr %10, align 8, !tbaa !3
  store i32 %49, ptr %44, align 8, !tbaa !3
  %50 = getelementptr inbounds nuw i8, ptr %0, i64 1516
  %51 = load i8, ptr %50, align 4
  %52 = and i8 %51, -2
  store i8 %52, ptr %50, align 4
  br label %_ZN11mpq_managerILb0EE3setER3mpqRKS1_.exit.i

53:                                               ; preds = %_ZN11mpq_managerILb0EE3setER3mpzRKS1_.exit.i.i
  invoke void @_ZN11mpz_managerILb0EE7big_setER3mpzRKS1_(ptr noundef nonnull align 8 dereferenceable(728) %33, ptr noundef nonnull align 8 dereferenceable(16) %44, ptr noundef nonnull align 8 dereferenceable(16) %10)
          to label %_ZN11mpq_managerILb0EE3setER3mpqRKS1_.exit.i unwind label %59

_ZN11mpq_managerILb0EE3setER3mpqRKS1_.exit.i:     ; preds = %53, %48
  %54 = invoke noundef zeroext i1 @_ZN16bound_propagator17assert_lower_coreEjR3mpqbNS_5bkindEjj(ptr noundef nonnull align 8 dereferenceable(280) %32, i32 noundef %30, ptr noundef nonnull align 8 dereferenceable(32) %34, i1 noundef zeroext %3, i32 noundef 0, i32 noundef 0, i32 noundef -1)
          to label %_ZN16bound_propagator12assert_lowerEjRK3mpqbj.exit unwind label %59

_ZN16bound_propagator12assert_lowerEjRK3mpqbj.exit: ; preds = %_ZN11mpq_managerILb0EE3setER3mpqRKS1_.exit.i
  %55 = load ptr, ptr %5, align 8, !tbaa !278
  invoke void @_ZN11mpz_managerILb0EE3delEPS0_R3mpz(ptr noundef nonnull align 8 dereferenceable(728) %55, ptr noundef nonnull align 8 dereferenceable(32) %7)
          to label %.noexc.i unwind label %56

.noexc.i:                                         ; preds = %_ZN16bound_propagator12assert_lowerEjRK3mpqbj.exit
  invoke void @_ZN11mpz_managerILb0EE3delEPS0_R3mpz(ptr noundef nonnull align 8 dereferenceable(728) %55, ptr noundef nonnull align 8 dereferenceable(16) %10)
          to label %_ZN15_scoped_numeralI11mpq_managerILb0EEED2Ev.exit unwind label %56

56:                                               ; preds = %.noexc.i, %_ZN16bound_propagator12assert_lowerEjRK3mpqbj.exit
  %57 = landingpad { ptr, i32 }
          catch ptr null
  %58 = extractvalue { ptr, i32 } %57, 0
  call void @__clang_call_terminate(ptr %58) #20
  unreachable

_ZN15_scoped_numeralI11mpq_managerILb0EEED2Ev.exit: ; preds = %.noexc.i
  call void @llvm.lifetime.end.p0(i64 40, ptr nonnull %5) #19
  ret void

59:                                               ; preds = %_ZN11mpq_managerILb0EE3setER3mpqRKS1_.exit.i, %53, %43, %29, %19, %_ZN11mpq_managerILb0EE3setER3mpqRKS1_.exit
  %60 = landingpad { ptr, i32 }
          cleanup
  call void @_ZN15_scoped_numeralI11mpq_managerILb0EEED2Ev(ptr noundef nonnull align 8 dereferenceable(40) %5) #19
  call void @llvm.lifetime.end.p0(i64 40, ptr nonnull %5) #19
  resume { ptr, i32 } %60
}